<packet>
  <proto name="geninfo" pos="0" showname="General information" size="118">
    <field name="num" pos="0" show="1" showname="Number" value="1" size="118"/>
    <field name="len" pos="0" show="118" showname="Frame Length" value="76" size="118"/>
    <field name="caplen" pos="0" show="118" showname="Captured Length" value="76" size="118"/>
    <field name="timestamp" pos="0" show="Mar 26, 2020 13:03:01.863675000 IST" showname="Captured Time" value="1585220581.863675000" size="118"/>
  </proto>
  <proto name="frame" showname="Frame 1: 118 bytes on wire (944 bits), 118 bytes captured (944 bits)" size="118" pos="0">
    <field name="frame.encap_type" showname="Encapsulation type: Ethernet (1)" size="0" pos="0" show="1"/>
    <field name="frame.time" showname="Arrival Time: Mar 26, 2020 13:03:01.863675000 IST" size="0" pos="0" show="Mar 26, 2020 13:03:01.863675000 IST"/>
    <field name="frame.offset_shift" showname="Time shift for this packet: 0.000000000 seconds" size="0" pos="0" show="0.000000000"/>
    <field name="frame.time_epoch" showname="Epoch Time: 1585220581.863675000 seconds" size="0" pos="0" show="1585220581.863675000"/>
    <field name="frame.time_delta" showname="Time delta from previous captured frame: 0.000000000 seconds" size="0" pos="0" show="0.000000000"/>
    <field name="frame.time_delta_displayed" showname="Time delta from previous displayed frame: 0.000000000 seconds" size="0" pos="0" show="0.000000000"/>
    <field name="frame.time_relative" showname="Time since reference or first frame: 0.000000000 seconds" size="0" pos="0" show="0.000000000"/>
    <field name="frame.number" showname="Frame Number: 1" size="0" pos="0" show="1"/>
    <field name="frame.len" showname="Frame Length: 118 bytes (944 bits)" size="0" pos="0" show="118"/>
    <field name="frame.cap_len" showname="Capture Length: 118 bytes (944 bits)" size="0" pos="0" show="118"/>
    <field name="frame.marked" showname="Frame is marked: False" size="0" pos="0" show="0"/>
    <field name="frame.ignored" showname="Frame is ignored: False" size="0" pos="0" show="0"/>
    <field name="frame.protocols" showname="Protocols in frame: eth:ethertype:ip:tcp:data" size="0" pos="0" show="eth:ethertype:ip:tcp:data"/>
  </proto>
  <proto name="eth" showname="Ethernet II, Src: Apple_e4:c2:ba (08:6d:41:e4:c2:ba), Dst: Technico_cc:b7:70 (10:13:31:cc:b7:70)" size="14" pos="0">
    <field name="eth.dst" showname="Destination: Technico_cc:b7:70 (10:13:31:cc:b7:70)" size="6" pos="0" show="10:13:31:cc:b7:70" value="101331ccb770">
      <field name="eth.dst_resolved" showname="Destination (resolved): Technico_cc:b7:70" hide="yes" size="6" pos="0" show="Technico_cc:b7:70" value="101331ccb770"/>
      <field name="eth.dst.oui" showname="Destination OUI: 10:13:31 (Technicolor)" hide="yes" size="3" pos="0" show="1053489" value="101331"/>
      <field name="eth.dst.oui_resolved" showname="Destination OUI (resolved): Technicolor" hide="yes" size="6" pos="0" show="Technicolor" value="101331ccb770"/>
      <field name="eth.addr" showname="Address: Technico_cc:b7:70 (10:13:31:cc:b7:70)" size="6" pos="0" show="10:13:31:cc:b7:70" value="101331ccb770"/>
      <field name="eth.addr_resolved" showname="Address (resolved): Technico_cc:b7:70" hide="yes" size="6" pos="0" show="Technico_cc:b7:70" value="101331ccb770"/>
      <field name="eth.addr.oui" showname="Address OUI: 10:13:31 (Technicolor)" hide="yes" size="3" pos="0" show="1053489" value="101331"/>
      <field name="eth.addr.oui_resolved" showname="Address OUI (resolved): Technicolor" hide="yes" size="6" pos="0" show="Technicolor" value="101331ccb770"/>
      <field name="eth.dst.lg" showname=".... ..0. .... .... .... .... = LG bit: Globally unique address (factory default)" size="3" pos="0" show="0" value="0" unmaskedvalue="101331"/>
      <field name="eth.lg" showname=".... ..0. .... .... .... .... = LG bit: Globally unique address (factory default)" hide="yes" size="3" pos="0" show="0" value="0" unmaskedvalue="101331"/>
      <field name="eth.dst.ig" showname=".... ...0 .... .... .... .... = IG bit: Individual address (unicast)" size="3" pos="0" show="0" value="0" unmaskedvalue="101331"/>
      <field name="eth.ig" showname=".... ...0 .... .... .... .... = IG bit: Individual address (unicast)" hide="yes" size="3" pos="0" show="0" value="0" unmaskedvalue="101331"/>
    </field>
    <field name="eth.src" showname="Source: Apple_e4:c2:ba (08:6d:41:e4:c2:ba)" size="6" pos="6" show="08:6d:41:e4:c2:ba" value="086d41e4c2ba">
      <field name="eth.src_resolved" showname="Source (resolved): Apple_e4:c2:ba" hide="yes" size="6" pos="6" show="Apple_e4:c2:ba" value="086d41e4c2ba"/>
      <field name="eth.src.oui" showname="Source OUI: 08:6d:41 (Apple, Inc.)" hide="yes" size="3" pos="6" show="552257" value="086d41"/>
      <field name="eth.src.oui_resolved" showname="Source OUI (resolved): Apple, Inc." hide="yes" size="6" pos="6" show="Apple, Inc." value="086d41e4c2ba"/>
      <field name="eth.addr" showname="Address: Apple_e4:c2:ba (08:6d:41:e4:c2:ba)" size="6" pos="6" show="08:6d:41:e4:c2:ba" value="086d41e4c2ba"/>
      <field name="eth.addr_resolved" showname="Address (resolved): Apple_e4:c2:ba" hide="yes" size="6" pos="6" show="Apple_e4:c2:ba" value="086d41e4c2ba"/>
      <field name="eth.addr.oui" showname="Address OUI: 08:6d:41 (Apple, Inc.)" hide="yes" size="3" pos="6" show="552257" value="086d41"/>
      <field name="eth.addr.oui_resolved" showname="Address OUI (resolved): Apple, Inc." hide="yes" size="6" pos="6" show="Apple, Inc." value="086d41e4c2ba"/>
      <field name="eth.src.lg" showname=".... ..0. .... .... .... .... = LG bit: Globally unique address (factory default)" size="3" pos="6" show="0" value="0" unmaskedvalue="086d41"/>
      <field name="eth.lg" showname=".... ..0. .... .... .... .... = LG bit: Globally unique address (factory default)" hide="yes" size="3" pos="6" show="0" value="0" unmaskedvalue="086d41"/>
      <field name="eth.src.ig" showname=".... ...0 .... .... .... .... = IG bit: Individual address (unicast)" size="3" pos="6" show="0" value="0" unmaskedvalue="086d41"/>
      <field name="eth.ig" showname=".... ...0 .... .... .... .... = IG bit: Individual address (unicast)" hide="yes" size="3" pos="6" show="0" value="0" unmaskedvalue="086d41"/>
    </field>
    <field name="eth.type" showname="Type: IPv4 (0x0800)" size="2" pos="12" show="0x00000800" value="0800"/>
  </proto>
  <proto name="ip" showname="Internet Protocol Version 4, Src: 192.168.1.180, Dst: 3.224.204.251" size="20" pos="14">
    <field name="ip.version" showname="0100 .... = Version: 4" size="1" pos="14" show="4" value="45"/>
    <field name="ip.hdr_len" showname=".... 0101 = Header Length: 20 bytes (5)" size="1" pos="14" show="20" value="45"/>
    <field name="ip.dsfield" showname="Differentiated Services Field: 0x10 (DSCP: Unknown, ECN: Not-ECT)" size="1" pos="15" show="0x00000010" value="10">
      <field name="ip.dsfield.dscp" showname="0001 00.. = Differentiated Services Codepoint: Unknown (4)" size="1" pos="15" show="4" value="4" unmaskedvalue="10"/>
      <field name="ip.dsfield.ecn" showname=".... ..00 = Explicit Congestion Notification: Not ECN-Capable Transport (0)" size="1" pos="15" show="0" value="0" unmaskedvalue="10"/>
    </field>
    <field name="ip.len" showname="Total Length: 104" size="2" pos="16" show="104" value="0068"/>
    <field name="ip.id" showname="Identification: 0x7742 (30530)" size="2" pos="18" show="0x00007742" value="7742"/>
    <field name="ip.flags" showname="Flags: 0x40, Don&#x27;t fragment" size="1" pos="20" show="0x00000040" value="40">
      <field name="ip.flags.rb" showname="0... .... = Reserved bit: Not set" size="1" pos="20" show="0" value="0" unmaskedvalue="40"/>
      <field name="ip.flags.df" showname=".1.. .... = Don&#x27;t fragment: Set" size="1" pos="20" show="1" value="1" unmaskedvalue="40"/>
      <field name="ip.flags.mf" showname="..0. .... = More fragments: Not set" size="1" pos="20" show="0" value="0" unmaskedvalue="40"/>
    </field>
    <field name="ip.frag_offset" showname="Fragment Offset: 0" size="2" pos="20" show="0" value="4000"/>
    <field name="ip.ttl" showname="Time to Live: 64" size="1" pos="22" show="64" value="40"/>
    <field name="ip.proto" showname="Protocol: TCP (6)" size="1" pos="23" show="6" value="06"/>
    <field name="ip.checksum" showname="Header Checksum: 0x3006 [correct]" size="2" pos="24" show="0x00003006" value="3006"/>
    <field name="ip.checksum.status" showname="Header checksum status: Good" size="0" pos="24" show="1"/>
    <field name="ip.checksum_calculated" showname="Calculated Checksum: 0x3006" size="2" pos="24" show="0x00003006" value="3006"/>
    <field name="ip.src" showname="Source Address: 192.168.1.180" size="4" pos="26" show="192.168.1.180" value="c0a801b4"/>
    <field name="ip.addr" showname="Source or Destination Address: 192.168.1.180" hide="yes" size="4" pos="26" show="192.168.1.180" value="c0a801b4"/>
    <field name="ip.src_host" showname="Source Host: 192.168.1.180" hide="yes" size="4" pos="26" show="192.168.1.180" value="c0a801b4"/>
    <field name="ip.host" showname="Source or Destination Host: 192.168.1.180" hide="yes" size="4" pos="26" show="192.168.1.180" value="c0a801b4"/>
    <field name="ip.dst" showname="Destination Address: 3.224.204.251" size="4" pos="30" show="3.224.204.251" value="03e0ccfb"/>
    <field name="ip.addr" showname="Source or Destination Address: 3.224.204.251" hide="yes" size="4" pos="30" show="3.224.204.251" value="03e0ccfb"/>
    <field name="ip.dst_host" showname="Destination Host: 3.224.204.251" hide="yes" size="4" pos="30" show="3.224.204.251" value="03e0ccfb"/>
    <field name="ip.host" showname="Source or Destination Host: 3.224.204.251" hide="yes" size="4" pos="30" show="3.224.204.251" value="03e0ccfb"/>
  </proto>
  <proto name="tcp" showname="Transmission Control Protocol, Src Port: 38570, Dst Port: 2222, Seq: 1, Ack: 1, Len: 52" size="32" pos="34">
    <field name="tcp.srcport" showname="Source Port: 38570" size="2" pos="34" show="38570" value="96aa"/>
    <field name="tcp.dstport" showname="Destination Port: 2222" size="2" pos="36" show="2222" value="08ae"/>
    <field name="tcp.port" showname="Source or Destination Port: 38570" hide="yes" size="2" pos="34" show="38570" value="96aa"/>
    <field name="tcp.port" showname="Source or Destination Port: 2222" hide="yes" size="2" pos="36" show="2222" value="08ae"/>
    <field name="tcp.stream" showname="Stream index: 0" size="0" pos="34" show="0"/>
    <field name="tcp.len" showname="TCP Segment Len: 52" size="1" pos="46" show="52" value="80"/>
    <field name="tcp.seq" showname="Sequence Number: 1    (relative sequence number)" size="4" pos="38" show="1" value="eb789db3"/>
    <field name="tcp.seq_raw" showname="Sequence Number (raw): 3950550451" size="4" pos="38" show="3950550451" value="eb789db3"/>
    <field name="tcp.nxtseq" showname="Next Sequence Number: 53    (relative sequence number)" size="0" pos="34" show="53"/>
    <field name="tcp.ack" showname="Acknowledgment Number: 1    (relative ack number)" size="4" pos="42" show="1" value="5c379005"/>
    <field name="tcp.ack_raw" showname="Acknowledgment number (raw): 1547145221" size="4" pos="42" show="1547145221" value="5c379005"/>
    <field name="tcp.hdr_len" showname="1000 .... = Header Length: 32 bytes (8)" size="1" pos="46" show="32" value="80"/>
    <field name="tcp.flags" showname="Flags: 0x018 (PSH, ACK)" size="2" pos="46" show="0x00000018" value="18" unmaskedvalue="8018">
      <field name="tcp.flags.res" showname="000. .... .... = Reserved: Not set" size="1" pos="46" show="0" value="0" unmaskedvalue="80"/>
      <field name="tcp.flags.ns" showname="...0 .... .... = Nonce: Not set" size="1" pos="46" show="0" value="0" unmaskedvalue="80"/>
      <field name="tcp.flags.cwr" showname=".... 0... .... = Congestion Window Reduced (CWR): Not set" size="1" pos="47" show="0" value="0" unmaskedvalue="18"/>
      <field name="tcp.flags.ecn" showname=".... .0.. .... = ECN-Echo: Not set" size="1" pos="47" show="0" value="0" unmaskedvalue="18"/>
      <field name="tcp.flags.urg" showname=".... ..0. .... = Urgent: Not set" size="1" pos="47" show="0" value="0" unmaskedvalue="18"/>
      <field name="tcp.flags.ack" showname=".... ...1 .... = Acknowledgment: Set" size="1" pos="47" show="1" value="1" unmaskedvalue="18"/>
      <field name="tcp.flags.push" showname=".... .... 1... = Push: Set" size="1" pos="47" show="1" value="1" unmaskedvalue="18"/>
      <field name="tcp.flags.reset" showname=".... .... .0.. = Reset: Not set" size="1" pos="47" show="0" value="0" unmaskedvalue="18"/>
      <field name="tcp.flags.syn" showname=".... .... ..0. = Syn: Not set" size="1" pos="47" show="0" value="0" unmaskedvalue="18"/>
      <field name="tcp.flags.fin" showname=".... .... ...0 = Fin: Not set" size="1" pos="47" show="0" value="0" unmaskedvalue="18"/>
      <field name="tcp.flags.str" showname="TCP Flags: ·······AP···" size="2" pos="46" show="·······AP···" value="8018"/>
    </field>
    <field name="tcp.window_size_value" showname="Window: 501" size="2" pos="48" show="501" value="01f5"/>
    <field name="tcp.window_size" showname="Calculated window size: 501" size="2" pos="48" show="501" value="01f5"/>
    <field name="tcp.window_size_scalefactor" showname="Window size scaling factor: -1 (unknown)" size="2" pos="48" show="-1" value="01f5"/>
    <field name="tcp.checksum" showname="Checksum: 0xb71f [correct]" size="2" pos="50" show="0x0000b71f" value="b71f"/>
    <field name="tcp.checksum.status" showname="Checksum Status: Good" size="0" pos="50" show="1"/>
    <field name="tcp.checksum_calculated" showname="Calculated Checksum: 0xb71f" size="2" pos="50" show="0x0000b71f" value="b71f"/>
    <field name="tcp.urgent_pointer" showname="Urgent Pointer: 0" size="2" pos="52" show="0" value="0000"/>
    <field name="tcp.options" showname="Options: (12 bytes), No-Operation (NOP), No-Operation (NOP), Timestamps" size="12" pos="54" show="01:01:08:0a:db:09:8b:13:15:7a:89:e7" value="0101080adb098b13157a89e7">
      <field name="tcp.options.nop" showname="TCP Option - No-Operation (NOP)" size="1" pos="54" show="01" value="01">
        <field name="tcp.option_kind" showname="Kind: No-Operation (1)" size="1" pos="54" show="1" value="01"/>
      </field>
      <field name="tcp.options.nop" showname="TCP Option - No-Operation (NOP)" size="1" pos="55" show="01" value="01">
        <field name="tcp.option_kind" showname="Kind: No-Operation (1)" size="1" pos="55" show="1" value="01"/>
      </field>
      <field name="tcp.options.timestamp" showname="TCP Option - Timestamps: TSval 3674835731, TSecr 360352231" size="10" pos="56" show="08:0a:db:09:8b:13:15:7a:89:e7" value="080adb098b13157a89e7">
        <field name="tcp.option_kind" showname="Kind: Time Stamp Option (8)" size="1" pos="56" show="8" value="08"/>
        <field name="tcp.option_len" showname="Length: 10" size="1" pos="57" show="10" value="0a"/>
        <field name="tcp.options.timestamp.tsval" showname="Timestamp value: 3674835731" size="4" pos="58" show="3674835731" value="db098b13"/>
        <field name="tcp.options.timestamp.tsecr" showname="Timestamp echo reply: 360352231" size="4" pos="62" show="360352231" value="157a89e7"/>
      </field>
    </field>
    <field name="tcp.analysis" showname="SEQ/ACK analysis" size="0" pos="34" show="" value="">
      <field name="tcp.analysis.bytes_in_flight" showname="Bytes in flight: 52" size="0" pos="34" show="52"/>
      <field name="tcp.analysis.push_bytes_sent" showname="Bytes sent since last PSH flag: 52" size="0" pos="34" show="52"/>
    </field>
    <field name="" show="Timestamps" size="0" pos="34">
      <field name="tcp.time_relative" showname="Time since first frame in this TCP stream: 0.000000000 seconds" size="0" pos="34" show="0.000000000"/>
      <field name="tcp.time_delta" showname="Time since previous frame in this TCP stream: 0.000000000 seconds" size="0" pos="34" show="0.000000000"/>
    </field>
    <field name="tcp.payload" showname="TCP payload (52 bytes)" size="52" pos="66" show="43:f0:5d:02:7c:f3:26:59:3f:ef:d5:0d:81:c1:6b:e8:57:9e:3a:b2:18:42:a6:24:1c:74:2e:83:2d:d4:97:46:ee:25:6d:bb:5d:f8:71:00:79:94:7e:db:75:45:b7:dd:f8:45:1f:91" value="43f05d027cf326593fefd50d81c16be8579e3ab21842a6241c742e832dd49746ee256dbb5df8710079947edb7545b7ddf8451f91"/>
  </proto>
  <proto name="fake-field-wrapper">
    <field name="data" value="43f05d027cf326593fefd50d81c16be8579e3ab21842a6241c742e832dd49746ee256dbb5df8710079947edb7545b7ddf8451f91">
      <field name="data.data" showname="Data: 43f05d027cf326593fefd50d81c16be8579e3ab21842a6241c742e832dd49746ee256dbb…" size="52" pos="66" show="43:f0:5d:02:7c:f3:26:59:3f:ef:d5:0d:81:c1:6b:e8:57:9e:3a:b2:18:42:a6:24:1c:74:2e:83:2d:d4:97:46:ee:25:6d:bb:5d:f8:71:00:79:94:7e:db:75:45:b7:dd:f8:45:1f:91" value="43f05d027cf326593fefd50d81c16be8579e3ab21842a6241c742e832dd49746ee256dbb5df8710079947edb7545b7ddf8451f91"/>
      <field name="data.len" showname="Length: 52" size="0" pos="66" show="52"/>
  </field>
  </proto>
</packet>
